; Function Attrs: nounwind uwtable
define ptr @l_Lake_Manifest_saveToFile___boxed(ptr noundef %0, ptr noundef %1, ptr noundef %2) local_unnamed_addr #0 {
  %4 = tail call ptr @l_Lake_Manifest_toJson(ptr noundef %0)
  %5 = tail call ptr @l_Lean_Json_pretty(ptr noundef %4, ptr noundef nonnull inttoptr (i64 161 to ptr)) #6
  %6 = tail call ptr @lean_string_push(ptr noundef %5, i32 noundef 10) #6
  %7 = tail call ptr @l_IO_FS_writeFile(ptr noundef %1, ptr noundef %6, ptr noundef %2) #6
  %8 = ptrtoint ptr %6 to i64
  %9 = and i64 %8, 1
  %.not.i.i = icmp eq i64 %9, 0
  br i1 %.not.i.i, label %10, label %l_Lake_Manifest_saveToFile.exit

10:                                               ; preds = %3
  %11 = load i32, ptr %6, align 4, !tbaa !4
  %12 = icmp sgt i32 %11, 1
  br i1 %12, label %13, label %15, !prof !11

13:                                               ; preds = %10
  %14 = add nsw i32 %11, -1
  store i32 %14, ptr %6, align 4, !tbaa !4
  br label %l_Lake_Manifest_saveToFile.exit

15:                                               ; preds = %10
  %.not.i.i.i = icmp eq i32 %11, 0
  br i1 %.not.i.i.i, label %l_Lake_Manifest_saveToFile.exit, label %16

16:                                               ; preds = %15
  tail call void @lean_dec_ref_cold(ptr noundef nonnull %6) #6
  br label %l_Lake_Manifest_saveToFile.exit

l_Lake_Manifest_saveToFile.exit:                  ; preds = %3, %13, %15, %16
  %17 = ptrtoint ptr %1 to i64
  %18 = and i64 %17, 1
  %.not = icmp eq i64 %18, 0
  br i1 %.not, label %19, label %lean_dec.exit

19:                                               ; preds = %l_Lake_Manifest_saveToFile.exit
  %20 = load i32, ptr %1, align 4, !tbaa !4
  %21 = icmp sgt i32 %20, 1
  br i1 %21, label %22, label %24, !prof !11

22:                                               ; preds = %19
  %23 = add nsw i32 %20, -1
  store i32 %23, ptr %1, align 4, !tbaa !4
  br label %lean_dec.exit

24:                                               ; preds = %19
  %.not.i = icmp eq i32 %20, 0
  br i1 %.not.i, label %lean_dec.exit, label %25

25:                                               ; preds = %24
  tail call void @lean_dec_ref_cold(ptr noundef nonnull %1) #6
  br label %lean_dec.exit

lean_dec.exit:                                    ; preds = %25, %24, %22, %l_Lake_Manifest_saveToFile.exit
  ret ptr %7
}